(dp1
S'lrate'
p2
F1e-08
sS'decay_c'
p3
F0
sS'patience'
p4
I15
sS'max_epochs'
p5
I5000
sS'dispFreq'
p6
I100
sS'alpha_c'
p7
F0
sS'clip_c'
p8
F1000
sS'saveto'
p9
S'./models/attention_maxlen[2000]_dimWord256_dim256.npz'
p10
sS'dim_coverage'
p11
I121
sS'valid_batch_size'
p12
I8
sS'dim_dec'
p13
I256
sS'optimizer'
p14
S'adadelta'
p15
sS'validFreq'
p16
I-1
sS'norm_file'
p17
(lp18
S'norm.pkl'
p19
asS'batch_size'
p20
I8
sS'encoder'
p21
S'gru'
p22
sS'dim_target'
p23
I111
sS'decoder'
p24
S'gru_cond'
p25
sS'valid_datasets'
p26
(lp27
S'../../prepare_data/data/9feature-valid-dis-0.005-revise.pkl'
p28
aS'../../prepare_data/data/valid_data_v3.txt'
p29
asS'dim_feature'
p30
I9
sS'use_dropout'
p31
I00
sS'datasets'
p32
(lp33
S'../../prepare_data/data/9feature-train-dis-0.005-revise.pkl'
p34
aS'../../prepare_data/data/train_data_v3.txt'
p35
aS'../../prepare_data/data/align-train-dis-0.005.pkl'
p36
asS'dim_word'
p37
I256
sS'sampleFreq'
p38
I-1
sS'dim_enc'
p39
(lp40
I250
aI250
aI250
aI250
asS'dictionaries'
p41
(lp42
S'../../prepare_data/data/dictionary.txt'
p43
asS'saveFreq'
p44
I-1
sS'maxlen'
p45
I2000
sS'finish_after'
p46
I10000000
sS'down_sample'
p47
(lp48
I0
aI0
aI1
aI1
asS'reload_'
p49
I00
sS'gamma'
p50
F0.10000000000000001
s.