(dp1
S'lrate'
p2
F1e-08
sS'decay_c'
p3
F0
sS'patience'
p4
I15
sS'max_epochs'
p5
I5000
sS'dispFreq'
p6
I100
sS'validFreq'
p7
I-1
sS'maxlen'
p8
I200
sS'clip_c'
p9
F1000
sS'saveto'
p10
S'./models/attention_maxlen[200]_dimWord256_dim256.npz'
p11
sS'dim_coverage'
p12
I256
sS'valid_result'
p13
(lp14
S'./result/valid.wer'
p15
asS'valid_batch_size'
p16
I8
sS'dim_dec'
p17
I256
sS'kernel_coverage'
p18
I121
sS'optimizer'
p19
S'adadelta'
p20
sS'alpha_c'
p21
F0
sS'valid_output'
p22
(lp23
S'./result/valid_decode_result.txt'
p24
asS'batch_size'
p25
I8
sS'encoder'
p26
S'gru'
p27
sS'dim_target'
p28
I111
sS'decoder'
p29
S'gru_cond'
p30
sS'valid_datasets'
p31
(lp32
S'../data/online-test.pkl'
p33
aS'../data/test_caption.txt'
p34
asS'dim_feature'
p35
I9
sS'use_dropout'
p36
I00
sS'datasets'
p37
(lp38
S'../data/online-train.pkl'
p39
aS'../data/train_caption.txt'
p40
aS'../data/align-online-train.pkl'
p41
asS'dim_word'
p42
I256
sS'sampleFreq'
p43
I-1
sS'dim_enc'
p44
(lp45
I250
aI250
aI250
aI250
asS'dictionaries'
p46
(lp47
S'../data/dictionary.txt'
p48
asS'saveFreq'
p49
I-1
sS'dim_attention'
p50
I500
sS'finish_after'
p51
I10000000
sS'down_sample'
p52
(lp53
I0
aI0
aI1
aI1
asS'reload_'
p54
I00
sS'gamma'
p55
F0.10000000000000001
s.