(dp1
S'optimizer'
p2
S'adadelta'
p3
sS'validFreq'
p4
I-1
sS'norm_file'
p5
(lp6
S'norm.pkl'
p7
asS'lrate'
p8
F1e-08
sS'batch_size'
p9
I8
sS'decay_c'
p10
F0
sS'dim_target'
p11
I111
sS'patience'
p12
I15
sS'decoder'
p13
S'gru_cond'
p14
sS'valid_datasets'
p15
(lp16
S'../../prepare_data/data/9feature-valid-dis-0.005-revise.pkl'
p17
aS'../../prepare_data/data/valid_data_v3.txt'
p18
asS'max_epochs'
p19
I5000
sS'dispFreq'
p20
I100
sS'encoder'
p21
S'gru'
p22
sS'dim_feature'
p23
I9
sS'alpha_c'
p24
F0
sS'use_dropout'
p25
I00
sS'datasets'
p26
(lp27
S'../../prepare_data/data/9feature-train-dis-0.005-revise.pkl'
p28
aS'../../prepare_data/data/train_data_v3.txt'
p29
asS'dim_word'
p30
I256
sS'sampleFreq'
p31
I-1
sS'dim_enc'
p32
(lp33
I250
aI250
aI250
aI250
asS'dictionaries'
p34
(lp35
S'../../prepare_data/data/dictionary.txt'
p36
asS'finish_after'
p37
I10000000
sS'clip_c'
p38
F1000
sS'saveFreq'
p39
I-1
sS'maxlen'
p40
I2000
sS'saveto'
p41
S'./models/attention_maxlen[2000]_dimWord256_dim256.npz'
p42
sS'dim_coverage'
p43
I121
sS'valid_batch_size'
p44
I8
sS'down_sample'
p45
(lp46
I0
aI0
aI1
aI1
asS'dim_dec'
p47
I256
sS'reload_'
p48
I00
s.